target datalayout = "e-m:e-p270:32:32-p271:32:32-p272:64:64-i64:64-i128:128-f80:128-n8:16:32:64-S128"
target triple = "x86_64-pc-linux-gnu"

@.str.8 = private unnamed_addr constant [1 x i8] zeroinitializer, align 1
@.str.74 = private unnamed_addr constant [23 x i8] c"missing value for '%s'\00", align 1
@git_gettext_enabled = external global i32, align 4
@.str.175 = private unnamed_addr constant [20 x i8] c"i18n.commitencoding\00", align 1
@git_commit_encoding = external global ptr, align 8
@.str.176 = private unnamed_addr constant [23 x i8] c"i18n.logoutputencoding\00", align 1
@git_log_output_encoding = external global ptr, align 8

; Function Attrs: inlinehint nounwind uwtable
define internal ptr @_(ptr noundef %0) #6 {
  %2 = alloca ptr, align 8
  %3 = alloca ptr, align 8
  store ptr %0, ptr %3, align 8, !tbaa !4
  %4 = load ptr, ptr %3, align 8, !tbaa !4
  %5 = load i8, ptr %4, align 1, !tbaa !9
  %6 = icmp ne i8 %5, 0
  br i1 %6, label %8, label %7

7:                                                ; preds = %1
  store ptr @.str.8, ptr %2, align 8
  br label %16

8:                                                ; preds = %1
  %9 = load i32, ptr @git_gettext_enabled, align 4, !tbaa !13
  %10 = icmp ne i32 %9, 0
  br i1 %10, label %13, label %11

11:                                               ; preds = %8
  %12 = load ptr, ptr %3, align 8, !tbaa !4
  store ptr %12, ptr %2, align 8
  br label %16

13:                                               ; preds = %8
  %14 = load ptr, ptr %3, align 8, !tbaa !4
  %15 = call ptr @dcgettext(ptr noundef null, ptr noundef %14, i32 noundef 5) #13
  store ptr %15, ptr %2, align 8
  br label %16

16:                                               ; preds = %13, %11, %7
  %17 = load ptr, ptr %2, align 8
  ret ptr %17
}

; Function Attrs: inlinehint nounwind uwtable
define internal i32 @const_error() #6 {
  ret i32 -1
}

; Function Attrs: nounwind uwtable
define dso_local i32 @config_error_nonbool(ptr noundef %0) #0 {
  %2 = alloca ptr, align 8
  store ptr %0, ptr %2, align 8, !tbaa !4
  %3 = call ptr @_(ptr noundef @.str.74)
  %4 = load ptr, ptr %2, align 8, !tbaa !4
  %5 = call i32 (ptr, ...) @error(ptr noundef %3, ptr noundef %4)
  %6 = call i32 @const_error()
  ret i32 %6
}

; Function Attrs: nounwind uwtable
define dso_local i32 @git_config_string(ptr noundef %0, ptr noundef %1, ptr noundef %2) #0 {
  %4 = alloca i32, align 4
  %5 = alloca ptr, align 8
  %6 = alloca ptr, align 8
  %7 = alloca ptr, align 8
  store ptr %0, ptr %5, align 8, !tbaa !15
  store ptr %1, ptr %6, align 8, !tbaa !4
  store ptr %2, ptr %7, align 8, !tbaa !4
  %8 = load ptr, ptr %7, align 8, !tbaa !4
  %9 = icmp ne ptr %8, null
  br i1 %9, label %14, label %10

10:                                               ; preds = %3
  %11 = load ptr, ptr %6, align 8, !tbaa !4
  %12 = call i32 @config_error_nonbool(ptr noundef %11)
  %13 = call i32 @const_error()
  store i32 %13, ptr %4, align 4
  br label %18

14:                                               ; preds = %3
  %15 = load ptr, ptr %7, align 8, !tbaa !4
  %16 = call ptr @xstrdup(ptr noundef %15)
  %17 = load ptr, ptr %5, align 8, !tbaa !15
  store ptr %16, ptr %17, align 8, !tbaa !4
  store i32 0, ptr %4, align 4
  br label %18

18:                                               ; preds = %14, %10
  %19 = load i32, ptr %4, align 4
  ret i32 %19
}

; Function Attrs: nounwind uwtable
define internal i32 @git_default_i18n_config(ptr noundef %0, ptr noundef %1) #0 {
  %3 = alloca i32, align 4
  %4 = alloca ptr, align 8
  %5 = alloca ptr, align 8
  store ptr %0, ptr %4, align 8, !tbaa !4
  store ptr %1, ptr %5, align 8, !tbaa !4
  %6 = load ptr, ptr %4, align 8, !tbaa !4
  %7 = call i32 @strcmp(ptr noundef %6, ptr noundef @.str.175) #14
  %8 = icmp ne i32 %7, 0
  br i1 %8, label %16, label %9

9:                                                ; preds = %2
  br label %10

10:                                               ; preds = %9
  %11 = load ptr, ptr @git_commit_encoding, align 8, !tbaa !4
  call void @free(ptr noundef %11) #13
  store ptr null, ptr @git_commit_encoding, align 8, !tbaa !4
  br label %12

12:                                               ; preds = %10
  %13 = load ptr, ptr %4, align 8, !tbaa !4
  %14 = load ptr, ptr %5, align 8, !tbaa !4
  %15 = call i32 @git_config_string(ptr noundef @git_commit_encoding, ptr noundef %13, ptr noundef %14)
  store i32 %15, ptr %3, align 4
  br label %28

16:                                               ; preds = %2
  %17 = load ptr, ptr %4, align 8, !tbaa !4
  %18 = call i32 @strcmp(ptr noundef %17, ptr noundef @.str.176) #14
  %19 = icmp ne i32 %18, 0
  br i1 %19, label %27, label %20

20:                                               ; preds = %16
  br label %21

21:                                               ; preds = %20
  %22 = load ptr, ptr @git_log_output_encoding, align 8, !tbaa !4
  call void @free(ptr noundef %22) #13
  store ptr null, ptr @git_log_output_encoding, align 8, !tbaa !4
  br label %23

23:                                               ; preds = %21
  %24 = load ptr, ptr %4, align 8, !tbaa !4
  %25 = load ptr, ptr %5, align 8, !tbaa !4
  %26 = call i32 @git_config_string(ptr noundef @git_log_output_encoding, ptr noundef %24, ptr noundef %25)
  store i32 %26, ptr %3, align 4
  br label %28

27:                                               ; preds = %16
  store i32 0, ptr %3, align 4
  br label %28

28:                                               ; preds = %27, %23, %12
  %29 = load i32, ptr %3, align 4
  ret i32 %29
}