; Function Attrs: nounwind uwtable
define internal fastcc range(i32 -1, 1) i32 @git_default_i18n_config(ptr noundef %0, ptr noundef %1) unnamed_addr #0 {
  %3 = tail call i32 @strcmp(ptr noundef nonnull dereferenceable(1) %0, ptr noundef nonnull dereferenceable(20) @.str.175) #29
  %.not = icmp eq i32 %3, 0
  br i1 %.not, label %4, label %13

4:                                                ; preds = %2
  %5 = load ptr, ptr @git_commit_encoding, align 8, !tbaa !17
  tail call void @free(ptr noundef %5) #30
  store ptr null, ptr @git_commit_encoding, align 8, !tbaa !17
  %.not.i = icmp eq ptr %1, null
  br i1 %.not.i, label %6, label %11

6:                                                ; preds = %4
  %7 = load i32, ptr @git_gettext_enabled, align 4, !tbaa !14
  %.not4.i.i.i = icmp eq i32 %7, 0
  br i1 %.not4.i.i.i, label %config_error_nonbool.exit.i, label %8

8:                                                ; preds = %6
  %9 = tail call ptr @dcgettext(ptr noundef null, ptr noundef nonnull @.str.74, i32 noundef 5) #30
  br label %config_error_nonbool.exit.i

config_error_nonbool.exit.i:                      ; preds = %8, %6
  %.0.i.i.i = phi ptr [ %9, %8 ], [ @.str.74, %6 ]
  %10 = tail call i32 (ptr, ...) @error(ptr noundef %.0.i.i.i, ptr noundef nonnull %0) #30
  br label %git_config_string.exit

11:                                               ; preds = %4
  %12 = tail call ptr @xstrdup(ptr noundef nonnull %1) #30
  store ptr %12, ptr @git_commit_encoding, align 8, !tbaa !17
  br label %git_config_string.exit

13:                                               ; preds = %2
  %14 = tail call i32 @strcmp(ptr noundef nonnull dereferenceable(1) %0, ptr noundef nonnull dereferenceable(23) @.str.176) #29
  %.not6 = icmp eq i32 %14, 0
  br i1 %.not6, label %15, label %git_config_string.exit

15:                                               ; preds = %13
  %16 = load ptr, ptr @git_log_output_encoding, align 8, !tbaa !17
  tail call void @free(ptr noundef %16) #30
  store ptr null, ptr @git_log_output_encoding, align 8, !tbaa !17
  %.not.i7 = icmp eq ptr %1, null
  br i1 %.not.i7, label %17, label %22

17:                                               ; preds = %15
  %18 = load i32, ptr @git_gettext_enabled, align 4, !tbaa !14
  %.not4.i.i.i9 = icmp eq i32 %18, 0
  br i1 %.not4.i.i.i9, label %config_error_nonbool.exit.i10, label %19

19:                                               ; preds = %17
  %20 = tail call ptr @dcgettext(ptr noundef null, ptr noundef nonnull @.str.74, i32 noundef 5) #30
  br label %config_error_nonbool.exit.i10

config_error_nonbool.exit.i10:                    ; preds = %19, %17
  %.0.i.i.i11 = phi ptr [ %20, %19 ], [ @.str.74, %17 ]
  %21 = tail call i32 (ptr, ...) @error(ptr noundef %.0.i.i.i11, ptr noundef nonnull %0) #30
  br label %git_config_string.exit

22:                                               ; preds = %15
  %23 = tail call ptr @xstrdup(ptr noundef nonnull %1) #30
  store ptr %23, ptr @git_log_output_encoding, align 8, !tbaa !17
  br label %git_config_string.exit

git_config_string.exit:                           ; preds = %22, %config_error_nonbool.exit.i10, %11, %config_error_nonbool.exit.i, %13
  %.0 = phi i32 [ 0, %13 ], [ 0, %11 ], [ -1, %config_error_nonbool.exit.i ], [ 0, %22 ], [ -1, %config_error_nonbool.exit.i10 ]
  ret i32 %.0
}